target datalayout = "e-m:e-p270:32:32-p271:32:32-p272:64:64-i64:64-i128:128-f80:128-n8:16:32:64-S128"
target triple = "x86_64-pc-linux-gnu"

%struct.QDM2Context = type { i32, i32, i32, i32, i32, i32, i32, i32, i32, i32, i32, i32, [16 x %struct.QDM2SubPacket], [16 x %struct.QDM2SubPNode], [16 x %struct.QDM2SubPNode], i32, [16 x %struct.QDM2SubPNode], [16 x %struct.QDM2SubPNode], [1000 x %struct.FFTTone], i32, i32, [1000 x %struct.FFTCoefficient], i32, [5 x i32], [5 x i32], [6 x i32], ptr, ptr, [8 x i8], %struct.QDM2FFT, ptr, i32, [2048 x float], %struct.MPADSPContext, [2 x [1024 x float]], [2 x i32], [8 x i8], [2 x [128 x [32 x float]]], [2304 x float], [2 x [30 x [64 x float]]], [2 x [30 x [64 x i8]]], [2 x [10 x [8 x i8]]], [2 x [30 x [8 x i8]]], [2 x [3 x [8 x [8 x i8]]]], [2 x [26 x [8 x i8]]], [2 x [26 x i8]], [2 x [30 x [64 x i8]]], [2 x [30 x [64 x i8]]], i32, i32, i32, i32, i32, [8 x i8] }
%struct.QDM2SubPacket = type { i32, i32, ptr }
%struct.QDM2SubPNode = type { ptr, ptr }
%struct.FFTTone = type { float, ptr, ptr, i32, i32, i32, i16, i16 }
%struct.FFTCoefficient = type { i16, i8, i16, i16, i8 }
%struct.QDM2FFT = type { [2 x [257 x %struct.AVComplexFloat]], [2 x [256 x %struct.AVComplexFloat]] }
%struct.AVComplexFloat = type { float, float }
%struct.MPADSPContext = type { ptr, ptr, ptr, ptr, ptr, ptr }
%struct.GetBitContext = type { ptr, ptr, i32, i32, i32 }

@.str.27 = private unnamed_addr constant [20 x i8] c"!superblocktype_2_3\00", align 1

; Function Attrs: inlinehint nounwind willreturn memory(none) uwtable
define internal i32 @zero_extend(i32 noundef %0, i32 noundef %1) #7 {
  %3 = alloca i32, align 4
  %4 = alloca i32, align 4
  store i32 %0, ptr %3, align 4, !tbaa !36
  store i32 %1, ptr %4, align 4, !tbaa !36
  %5 = load i32, ptr %3, align 4, !tbaa !36
  %6 = load i32, ptr %4, align 4, !tbaa !36
  %7 = zext i32 %6 to i64
  %8 = sub i64 32, %7
  %9 = trunc i64 %8 to i32
  %10 = shl i32 %5, %9
  %11 = load i32, ptr %4, align 4, !tbaa !36
  %12 = zext i32 %11 to i64
  %13 = sub i64 32, %12
  %14 = trunc i64 %13 to i32
  %15 = lshr i32 %10, %14
  ret i32 %15
}

; Function Attrs: nounwind uwtable
define internal void @fill_coding_method_array(ptr noundef %0, ptr noundef %1, ptr noundef %2, i32 noundef %3, i32 noundef %4, i32 noundef %5, i32 noundef %6) #1 {
  %8 = alloca ptr, align 8
  %9 = alloca ptr, align 8
  %10 = alloca ptr, align 8
  %11 = alloca i32, align 4
  %12 = alloca i32, align 4
  %13 = alloca i32, align 4
  %14 = alloca i32, align 4
  %15 = alloca i32, align 4
  %16 = alloca i32, align 4
  %17 = alloca i32, align 4
  %18 = alloca i32, align 4
  store ptr %0, ptr %8, align 8, !tbaa !63
  store ptr %1, ptr %9, align 8, !tbaa !63
  store ptr %2, ptr %10, align 8, !tbaa !63
  store i32 %3, ptr %11, align 4, !tbaa !36
  store i32 %4, ptr %12, align 4, !tbaa !36
  store i32 %5, ptr %13, align 4, !tbaa !36
  store i32 %6, ptr %14, align 4, !tbaa !36
  call void @llvm.lifetime.start.p0(i64 4, ptr %15) #13
  call void @llvm.lifetime.start.p0(i64 4, ptr %16) #13
  call void @llvm.lifetime.start.p0(i64 4, ptr %17) #13
  %19 = load i32, ptr %13, align 4, !tbaa !36
  %20 = icmp ne i32 %19, 0
  br i1 %20, label %22, label %21

21:                                               ; preds = %7
  call void (ptr, ptr, ...) @avpriv_request_sample(ptr noundef null, ptr noundef @.str.27)
  store i32 1, ptr %18, align 4
  br label %66

22:                                               ; preds = %7
  store i32 0, ptr %15, align 4, !tbaa !36
  br label %23

23:                                               ; preds = %61, %22
  %24 = load i32, ptr %15, align 4, !tbaa !36
  %25 = load i32, ptr %11, align 4, !tbaa !36
  %26 = icmp slt i32 %24, %25
  br i1 %26, label %27, label %64

27:                                               ; preds = %23
  store i32 0, ptr %16, align 4, !tbaa !36
  br label %28

28:                                               ; preds = %57, %27
  %29 = load i32, ptr %16, align 4, !tbaa !36
  %30 = icmp slt i32 %29, 30
  br i1 %30, label %31, label %60

31:                                               ; preds = %28
  store i32 0, ptr %17, align 4, !tbaa !36
  br label %32

32:                                               ; preds = %53, %31
  %33 = load i32, ptr %17, align 4, !tbaa !36
  %34 = icmp slt i32 %33, 64
  br i1 %34, label %35, label %56

35:                                               ; preds = %32
  %36 = load i32, ptr %14, align 4, !tbaa !36
  %37 = sext i32 %36 to i64
  %38 = getelementptr inbounds [5 x [30 x i8]], ptr @coding_method_table, i64 0, i64 %37
  %39 = load i32, ptr %16, align 4, !tbaa !36
  %40 = sext i32 %39 to i64
  %41 = getelementptr inbounds [30 x i8], ptr %38, i64 0, i64 %40
  %42 = load i8, ptr %41, align 1, !tbaa !78
  %43 = load ptr, ptr %10, align 8, !tbaa !63
  %44 = load i32, ptr %15, align 4, !tbaa !36
  %45 = sext i32 %44 to i64
  %46 = getelementptr inbounds [30 x [64 x i8]], ptr %43, i64 %45
  %47 = load i32, ptr %16, align 4, !tbaa !36
  %48 = sext i32 %47 to i64
  %49 = getelementptr inbounds [30 x [64 x i8]], ptr %46, i64 0, i64 %48
  %50 = load i32, ptr %17, align 4, !tbaa !36
  %51 = sext i32 %50 to i64
  %52 = getelementptr inbounds [64 x i8], ptr %49, i64 0, i64 %51
  store i8 %42, ptr %52, align 1, !tbaa !78
  br label %53

53:                                               ; preds = %35
  %54 = load i32, ptr %17, align 4, !tbaa !36
  %55 = add nsw i32 %54, 1
  store i32 %55, ptr %17, align 4, !tbaa !36
  br label %32, !llvm.loop !219

56:                                               ; preds = %32
  br label %57

57:                                               ; preds = %56
  %58 = load i32, ptr %16, align 4, !tbaa !36
  %59 = add nsw i32 %58, 1
  store i32 %59, ptr %16, align 4, !tbaa !36
  br label %28, !llvm.loop !220

60:                                               ; preds = %28
  br label %61

61:                                               ; preds = %60
  %62 = load i32, ptr %15, align 4, !tbaa !36
  %63 = add nsw i32 %62, 1
  store i32 %63, ptr %15, align 4, !tbaa !36
  br label %23, !llvm.loop !221

64:                                               ; preds = %23
  br label %65

65:                                               ; preds = %64
  store i32 0, ptr %18, align 4
  br label %66

66:                                               ; preds = %65, %21
  call void @llvm.lifetime.end.p0(i64 4, ptr %17) #13
  call void @llvm.lifetime.end.p0(i64 4, ptr %16) #13
  call void @llvm.lifetime.end.p0(i64 4, ptr %15) #13
  %67 = load i32, ptr %18, align 4
  switch i32 %67, label %69 [
    i32 0, label %68
    i32 1, label %68
  ]

68:                                               ; preds = %66, %66
  ret void

69:                                               ; preds = %66
  unreachable
}

; Function Attrs: inlinehint nounwind uwtable
define internal i32 @get_bits(ptr noundef %0, i32 noundef %1) #11 {
  %3 = alloca ptr, align 8
  %4 = alloca i32, align 4
  %5 = alloca i32, align 4
  %6 = alloca i32, align 4
  %7 = alloca i32, align 4
  %8 = alloca i32, align 4
  store ptr %0, ptr %3, align 8, !tbaa !173
  store i32 %1, ptr %4, align 4, !tbaa !36
  call void @llvm.lifetime.start.p0(i64 4, ptr %5) #13
  call void @llvm.lifetime.start.p0(i64 4, ptr %6) #13
  %9 = load ptr, ptr %3, align 8, !tbaa !173
  %10 = getelementptr inbounds nuw %struct.GetBitContext, ptr %9, i32 0, i32 2
  %11 = load i32, ptr %10, align 8, !tbaa !180
  store i32 %11, ptr %6, align 4, !tbaa !36
  call void @llvm.lifetime.start.p0(i64 4, ptr %7) #13
  call void @llvm.lifetime.start.p0(i64 4, ptr %8) #13
  %12 = load ptr, ptr %3, align 8, !tbaa !173
  %13 = getelementptr inbounds nuw %struct.GetBitContext, ptr %12, i32 0, i32 4
  %14 = load i32, ptr %13, align 8, !tbaa !178
  store i32 %14, ptr %8, align 4, !tbaa !36
  %15 = load ptr, ptr %3, align 8, !tbaa !173
  %16 = getelementptr inbounds nuw %struct.GetBitContext, ptr %15, i32 0, i32 0
  %17 = load ptr, ptr %16, align 8, !tbaa !175
  %18 = load i32, ptr %6, align 4, !tbaa !36
  %19 = lshr i32 %18, 3
  %20 = zext i32 %19 to i64
  %21 = getelementptr inbounds nuw i8, ptr %17, i64 %20
  %22 = load i32, ptr %21, align 1, !tbaa !78
  %23 = load i32, ptr %6, align 4, !tbaa !36
  %24 = and i32 %23, 7
  %25 = lshr i32 %22, %24
  store i32 %25, ptr %7, align 4, !tbaa !36
  %26 = load i32, ptr %7, align 4, !tbaa !36
  %27 = load i32, ptr %4, align 4, !tbaa !36
  %28 = call i32 @zero_extend(i32 noundef %26, i32 noundef %27) #14
  store i32 %28, ptr %5, align 4, !tbaa !36
  %29 = load i32, ptr %8, align 4, !tbaa !36
  %30 = load i32, ptr %6, align 4, !tbaa !36
  %31 = load i32, ptr %4, align 4, !tbaa !36
  %32 = add i32 %30, %31
  %33 = icmp ugt i32 %29, %32
  br i1 %33, label %34, label %38

34:                                               ; preds = %2
  %35 = load i32, ptr %6, align 4, !tbaa !36
  %36 = load i32, ptr %4, align 4, !tbaa !36
  %37 = add i32 %35, %36
  br label %40

38:                                               ; preds = %2
  %39 = load i32, ptr %8, align 4, !tbaa !36
  br label %40

40:                                               ; preds = %38, %34
  %41 = phi i32 [ %37, %34 ], [ %39, %38 ]
  store i32 %41, ptr %6, align 4, !tbaa !36
  %42 = load i32, ptr %6, align 4, !tbaa !36
  %43 = load ptr, ptr %3, align 8, !tbaa !173
  %44 = getelementptr inbounds nuw %struct.GetBitContext, ptr %43, i32 0, i32 2
  store i32 %42, ptr %44, align 8, !tbaa !180
  %45 = load i32, ptr %5, align 4, !tbaa !36
  call void @llvm.lifetime.end.p0(i64 4, ptr %8) #13
  call void @llvm.lifetime.end.p0(i64 4, ptr %7) #13
  call void @llvm.lifetime.end.p0(i64 4, ptr %6) #13
  call void @llvm.lifetime.end.p0(i64 4, ptr %5) #13
  ret i32 %45
}

; Function Attrs: inlinehint nounwind uwtable
define internal i32 @init_get_bits(ptr noundef %0, ptr noundef %1, i32 noundef %2) #11 {
  %4 = alloca ptr, align 8
  %5 = alloca ptr, align 8
  %6 = alloca i32, align 4
  %7 = alloca i32, align 4
  %8 = alloca i32, align 4
  store ptr %0, ptr %4, align 8, !tbaa !173
  store ptr %1, ptr %5, align 8, !tbaa !63
  store i32 %2, ptr %6, align 4, !tbaa !36
  call void @llvm.lifetime.start.p0(i64 4, ptr %7) #13
  call void @llvm.lifetime.start.p0(i64 4, ptr %8) #13
  store i32 0, ptr %8, align 4, !tbaa !36
  %9 = load i32, ptr %6, align 4, !tbaa !36
  %10 = icmp sge i32 %9, 2147483135
  br i1 %10, label %17, label %11

11:                                               ; preds = %3
  %12 = load i32, ptr %6, align 4, !tbaa !36
  %13 = icmp slt i32 %12, 0
  br i1 %13, label %17, label %14

14:                                               ; preds = %11
  %15 = load ptr, ptr %5, align 8, !tbaa !63
  %16 = icmp ne ptr %15, null
  br i1 %16, label %18, label %17

17:                                               ; preds = %14, %11, %3
  store i32 0, ptr %6, align 4, !tbaa !36
  store ptr null, ptr %5, align 8, !tbaa !63
  store i32 -1094995529, ptr %8, align 4, !tbaa !36
  br label %18

18:                                               ; preds = %17, %14
  %19 = load i32, ptr %6, align 4, !tbaa !36
  %20 = add nsw i32 %19, 7
  %21 = ashr i32 %20, 3
  store i32 %21, ptr %7, align 4, !tbaa !36
  %22 = load ptr, ptr %5, align 8, !tbaa !63
  %23 = load ptr, ptr %4, align 8, !tbaa !173
  %24 = getelementptr inbounds nuw %struct.GetBitContext, ptr %23, i32 0, i32 0
  store ptr %22, ptr %24, align 8, !tbaa !175
  %25 = load i32, ptr %6, align 4, !tbaa !36
  %26 = load ptr, ptr %4, align 8, !tbaa !173
  %27 = getelementptr inbounds nuw %struct.GetBitContext, ptr %26, i32 0, i32 3
  store i32 %25, ptr %27, align 4, !tbaa !177
  %28 = load i32, ptr %6, align 4, !tbaa !36
  %29 = add nsw i32 %28, 8
  %30 = load ptr, ptr %4, align 8, !tbaa !173
  %31 = getelementptr inbounds nuw %struct.GetBitContext, ptr %30, i32 0, i32 4
  store i32 %29, ptr %31, align 8, !tbaa !178
  %32 = load ptr, ptr %5, align 8, !tbaa !63
  %33 = load i32, ptr %7, align 4, !tbaa !36
  %34 = sext i32 %33 to i64
  %35 = getelementptr inbounds i8, ptr %32, i64 %34
  %36 = load ptr, ptr %4, align 8, !tbaa !173
  %37 = getelementptr inbounds nuw %struct.GetBitContext, ptr %36, i32 0, i32 1
  store ptr %35, ptr %37, align 8, !tbaa !179
  %38 = load ptr, ptr %4, align 8, !tbaa !173
  %39 = getelementptr inbounds nuw %struct.GetBitContext, ptr %38, i32 0, i32 2
  store i32 0, ptr %39, align 8, !tbaa !180
  %40 = load i32, ptr %8, align 4, !tbaa !36
  call void @llvm.lifetime.end.p0(i64 4, ptr %8) #13
  call void @llvm.lifetime.end.p0(i64 4, ptr %7) #13
  ret i32 %40
}

; Function Attrs: nounwind uwtable
define internal void @process_subpacket_11(ptr noundef %0, ptr noundef %1) #1 {
  %3 = alloca ptr, align 8
  %4 = alloca ptr, align 8
  %5 = alloca %struct.GetBitContext, align 8
  %6 = alloca i32, align 4
  %7 = alloca i32, align 4
  store ptr %0, ptr %3, align 8, !tbaa !29
  store ptr %1, ptr %4, align 8, !tbaa !183
  call void @llvm.lifetime.start.p0(i64 32, ptr %5) #13
  call void @llvm.lifetime.start.p0(i64 4, ptr %6) #13
  store i32 0, ptr %6, align 4, !tbaa !36
  %8 = load ptr, ptr %4, align 8, !tbaa !183
  %9 = icmp ne ptr %8, null
  br i1 %9, label %10, label %24

10:                                               ; preds = %2
  %11 = load ptr, ptr %4, align 8, !tbaa !183
  %12 = getelementptr inbounds nuw %struct.QDM2SubPNode, ptr %11, i32 0, i32 0
  %13 = load ptr, ptr %12, align 8, !tbaa !104
  %14 = getelementptr inbounds nuw %struct.QDM2SubPacket, ptr %13, i32 0, i32 1
  %15 = load i32, ptr %14, align 4, !tbaa !116
  %16 = mul i32 %15, 8
  store i32 %16, ptr %6, align 4, !tbaa !36
  %17 = load ptr, ptr %4, align 8, !tbaa !183
  %18 = getelementptr inbounds nuw %struct.QDM2SubPNode, ptr %17, i32 0, i32 0
  %19 = load ptr, ptr %18, align 8, !tbaa !104
  %20 = getelementptr inbounds nuw %struct.QDM2SubPacket, ptr %19, i32 0, i32 2
  %21 = load ptr, ptr %20, align 8, !tbaa !115
  %22 = load i32, ptr %6, align 4, !tbaa !36
  %23 = call i32 @init_get_bits(ptr noundef %5, ptr noundef %21, i32 noundef %22)
  br label %24

24:                                               ; preds = %10, %2
  %25 = load i32, ptr %6, align 4, !tbaa !36
  %26 = icmp sge i32 %25, 32
  br i1 %26, label %27, label %53

27:                                               ; preds = %24
  call void @llvm.lifetime.start.p0(i64 4, ptr %7) #13
  %28 = call i32 @get_bits(ptr noundef %5, i32 noundef 13)
  store i32 %28, ptr %7, align 4, !tbaa !36
  %29 = load i32, ptr %7, align 4, !tbaa !36
  %30 = icmp sgt i32 %29, 3
  br i1 %30, label %31, label %52

31:                                               ; preds = %27
  %32 = load ptr, ptr %3, align 8, !tbaa !29
  %33 = getelementptr inbounds nuw %struct.QDM2Context, ptr %32, i32 0, i32 46
  %34 = getelementptr inbounds [2 x [30 x [64 x i8]]], ptr %33, i64 0, i64 0
  %35 = load ptr, ptr %3, align 8, !tbaa !29
  %36 = getelementptr inbounds nuw %struct.QDM2Context, ptr %35, i32 0, i32 47
  %37 = getelementptr inbounds [2 x [30 x [64 x i8]]], ptr %36, i64 0, i64 0
  %38 = load ptr, ptr %3, align 8, !tbaa !29
  %39 = getelementptr inbounds nuw %struct.QDM2Context, ptr %38, i32 0, i32 40
  %40 = getelementptr inbounds [2 x [30 x [64 x i8]]], ptr %39, i64 0, i64 0
  %41 = load ptr, ptr %3, align 8, !tbaa !29
  %42 = getelementptr inbounds nuw %struct.QDM2Context, ptr %41, i32 0, i32 0
  %43 = load i32, ptr %42, align 16, !tbaa !42
  %44 = load i32, ptr %7, align 4, !tbaa !36
  %45 = mul nsw i32 8, %44
  %46 = load ptr, ptr %3, align 8, !tbaa !29
  %47 = getelementptr inbounds nuw %struct.QDM2Context, ptr %46, i32 0, i32 49
  %48 = load i32, ptr %47, align 8, !tbaa !114
  %49 = load ptr, ptr %3, align 8, !tbaa !29
  %50 = getelementptr inbounds nuw %struct.QDM2Context, ptr %49, i32 0, i32 11
  %51 = load i32, ptr %50, align 4, !tbaa !53
  call void @fill_coding_method_array(ptr noundef %34, ptr noundef %37, ptr noundef %40, i32 noundef %43, i32 noundef %45, i32 noundef %48, i32 noundef %51)
  br label %52

52:                                               ; preds = %31, %27
  call void @llvm.lifetime.end.p0(i64 4, ptr %7) #13
  br label %53

53:                                               ; preds = %52, %24
  %54 = load ptr, ptr %3, align 8, !tbaa !29
  %55 = load i32, ptr %6, align 4, !tbaa !36
  %56 = call i32 @synthfilt_build_sb_samples(ptr noundef %54, ptr noundef %5, i32 noundef %55, i32 noundef 0, i32 noundef 8)
  call void @llvm.lifetime.end.p0(i64 4, ptr %6) #13
  call void @llvm.lifetime.end.p0(i64 32, ptr %5) #13
  ret void
}