; Function Attrs: nounwind uwtable
define internal fastcc void @process_subpacket_11(ptr noundef captures(none) %0, ptr noundef readonly captures(address_is_null) %1) unnamed_addr #1 {
  %3 = alloca %struct.GetBitContext, align 8
  call void @llvm.lifetime.start.p0(i64 32, ptr nonnull %3) #10
  %.not = icmp eq ptr %1, null
  br i1 %.not, label %fill_coding_method_array.exit, label %4

4:                                                ; preds = %2
  %5 = load ptr, ptr %1, align 8, !tbaa !71
  %6 = getelementptr inbounds nuw i8, ptr %5, i64 4
  %7 = load i32, ptr %6, align 4, !tbaa !80
  %8 = shl i32 %7, 3
  %9 = getelementptr inbounds nuw i8, ptr %5, i64 8
  %10 = load ptr, ptr %9, align 8, !tbaa !81
  %or.cond.i = icmp ult i32 %8, 2147483135
  %11 = icmp ne ptr %10, null
  %or.cond3.i = and i1 %11, %or.cond.i
  %.018.i = select i1 %or.cond3.i, i32 %8, i32 0
  %.017.i = select i1 %or.cond.i, ptr %10, ptr null
  %12 = lshr exact i32 %.018.i, 3
  store ptr %.017.i, ptr %3, align 8, !tbaa !112
  %13 = getelementptr inbounds nuw i8, ptr %3, i64 20
  store i32 %.018.i, ptr %13, align 4, !tbaa !114
  %14 = add nuw nsw i32 %.018.i, 8
  %15 = getelementptr inbounds nuw i8, ptr %3, i64 24
  store i32 %14, ptr %15, align 8, !tbaa !115
  %16 = zext nneg i32 %12 to i64
  %17 = getelementptr inbounds nuw i8, ptr %.017.i, i64 %16
  %18 = getelementptr inbounds nuw i8, ptr %3, i64 8
  store ptr %17, ptr %18, align 8, !tbaa !116
  %19 = getelementptr inbounds nuw i8, ptr %3, i64 16
  store i32 0, ptr %19, align 8, !tbaa !117
  %20 = icmp sgt i32 %8, 31
  br i1 %20, label %21, label %fill_coding_method_array.exit

21:                                               ; preds = %4
  %22 = load i32, ptr %10, align 1, !tbaa !30
  %23 = tail call i32 @llvm.umin.i32(i32 %14, i32 13)
  store i32 %23, ptr %19, align 8, !tbaa !117
  %24 = and i32 %22, 8188
  %.not18 = icmp eq i32 %24, 0
  br i1 %.not18, label %fill_coding_method_array.exit, label %25

25:                                               ; preds = %21
  %26 = getelementptr inbounds nuw i8, ptr %0, i64 133456
  %27 = load i32, ptr %0, align 16, !tbaa !38
  %28 = getelementptr inbounds nuw i8, ptr %0, i64 146472
  %29 = load i32, ptr %28, align 8, !tbaa !69
  %30 = getelementptr inbounds nuw i8, ptr %0, i64 44
  %31 = load i32, ptr %30, align 4, !tbaa !49
  %.not.i = icmp eq i32 %29, 0
  br i1 %.not.i, label %34, label %.preheader2.i

.preheader2.i:                                    ; preds = %25
  %32 = icmp sgt i32 %27, 0
  br i1 %32, label %.preheader1.lr.ph.i, label %fill_coding_method_array.exit

.preheader1.lr.ph.i:                              ; preds = %.preheader2.i
  %33 = sext i32 %31 to i64
  %wide.trip.count.i = zext nneg i32 %27 to i64
  br label %.preheader1.i

34:                                               ; preds = %25
  tail call void (ptr, ptr, ...) @avpriv_request_sample(ptr noundef null, ptr noundef nonnull @.str.27) #10
  br label %fill_coding_method_array.exit

.preheader1.i:                                    ; preds = %40, %.preheader1.lr.ph.i
  %indvar.i = phi i64 [ 0, %.preheader1.lr.ph.i ], [ %indvar.next.i, %40 ]
  %35 = mul nuw nsw i64 %indvar.i, 1920
  %36 = getelementptr nuw i8, ptr %26, i64 %35
  br label %.preheader.i

.preheader.i:                                     ; preds = %.preheader.i, %.preheader1.i
  %indvar6.i = phi i64 [ 0, %.preheader1.i ], [ %indvar.next7.i, %.preheader.i ]
  %37 = shl nuw nsw i64 %indvar6.i, 6
  %scevgep.i = getelementptr nuw i8, ptr %36, i64 %37
  %38 = getelementptr inbounds [5 x [30 x i8]], ptr @coding_method_table, i64 0, i64 %33, i64 %indvar6.i
  %39 = load i8, ptr %38, align 1, !tbaa !30
  tail call void @llvm.memset.p0.i64(ptr noundef nonnull align 1 dereferenceable(64) %scevgep.i, i8 %39, i64 64, i1 false), !tbaa !30
  %indvar.next7.i = add nuw nsw i64 %indvar6.i, 1
  %exitcond.not.i = icmp eq i64 %indvar.next7.i, 30
  br i1 %exitcond.not.i, label %40, label %.preheader.i, !llvm.loop !179

40:                                               ; preds = %.preheader.i
  %indvar.next.i = add nuw nsw i64 %indvar.i, 1
  %exitcond11.not.i = icmp eq i64 %indvar.next.i, %wide.trip.count.i
  br i1 %exitcond11.not.i, label %fill_coding_method_array.exit, label %.preheader1.i, !llvm.loop !180

fill_coding_method_array.exit:                    ; preds = %40, %2, %34, %.preheader2.i, %21, %4
  %.017 = phi i32 [ %8, %21 ], [ %8, %4 ], [ %8, %.preheader2.i ], [ %8, %34 ], [ 0, %2 ], [ %8, %40 ]
  call fastcc void @synthfilt_build_sb_samples(ptr noundef %0, ptr noundef %3, i32 noundef %.017, i32 noundef 0, i32 noundef 8)
  call void @llvm.lifetime.end.p0(i64 32, ptr nonnull %3) #10
  ret void
}